; Function Attrs: nounwind uwtable
define hidden void @zif_get_class_vars(ptr noundef readonly captures(none) %0, ptr noundef captures(none) %1) #0 {
  %3 = alloca ptr, align 8
  call void @llvm.lifetime.start.p0(i64 8, ptr nonnull %3) #14
  store ptr null, ptr %3, align 8, !tbaa !31
  %4 = getelementptr inbounds nuw i8, ptr %0, i64 44
  %5 = load i32, ptr %4, align 4, !tbaa !28
  %6 = call i32 (i32, ptr, ...) @zend_parse_parameters(i32 noundef %5, ptr noundef nonnull @.str.30, ptr noundef nonnull %3) #14
  %7 = icmp eq i32 %6, -1
  br i1 %7, label %8, label %11

8:                                                ; preds = %2
  %9 = load ptr, ptr getelementptr inbounds nuw (i8, ptr @executor_globals, i64 960), align 8, !tbaa !67
  %10 = icmp ne ptr %9, null
  call void @llvm.assume(i1 %10)
  br label %24

11:                                               ; preds = %2
  %12 = call ptr @_zend_new_array_0() #14
  store ptr %12, ptr %1, align 8, !tbaa !28
  %13 = getelementptr inbounds nuw i8, ptr %1, i64 8
  store i32 775, ptr %13, align 8, !tbaa !28
  %14 = load ptr, ptr %3, align 8, !tbaa !31
  %15 = getelementptr inbounds nuw i8, ptr %14, i64 28
  %16 = load i32, ptr %15, align 4, !tbaa !122
  %17 = and i32 %16, 4096
  %.not = icmp eq i32 %17, 0
  br i1 %.not, label %18, label %20, !prof !62

18:                                               ; preds = %11
  %19 = call i32 @zend_update_class_constants(ptr noundef nonnull %14) #14
  %.not9 = icmp eq i32 %19, 0
  br i1 %.not9, label %20, label %24, !prof !69

20:                                               ; preds = %18, %11
  %21 = call ptr @zend_get_executed_scope() #14
  %22 = load ptr, ptr %3, align 8, !tbaa !31
  call fastcc void @add_class_vars(ptr noundef %21, ptr noundef %22, i1 noundef zeroext false, ptr noundef nonnull %1)
  %23 = load ptr, ptr %3, align 8, !tbaa !31
  call fastcc void @add_class_vars(ptr noundef %21, ptr noundef %23, i1 noundef zeroext true, ptr noundef nonnull %1)
  br label %24

24:                                               ; preds = %18, %20, %8
  call void @llvm.lifetime.end.p0(i64 8, ptr nonnull %3) #14
  ret void
}